; Function Attrs: mustprogress uwtable
define hidden void @_ZN19OpenColorIO_v2_5dev30CTFReaderGradingCurveSlopesEltC2ERKNSt7__cxx1112basic_stringIcSt11char_traitsIcESaIcEEESt10shared_ptrINS_21XmlReaderContainerEltEEjS8_(ptr noundef nonnull align 8 dereferenceable(120) %0, ptr noundef nonnull align 8 dereferenceable(32) %1, ptr noundef readonly captures(none) %2, i32 noundef %3, ptr noundef nonnull align 8 dereferenceable(32) %4) unnamed_addr #4 align 2 personality ptr @__gxx_personality_v0 {
  %6 = alloca %"class.std::shared_ptr.19", align 8
  %7 = load ptr, ptr %2, align 8, !tbaa !75
  store ptr %7, ptr %6, align 8, !tbaa !75
  %8 = getelementptr inbounds nuw i8, ptr %6, i64 8
  %9 = getelementptr inbounds nuw i8, ptr %2, i64 8
  %10 = load ptr, ptr %9, align 8, !tbaa !33
  store ptr %10, ptr %8, align 8, !tbaa !33
  %.not.i.i.i = icmp eq ptr %10, null
  br i1 %.not.i.i.i, label %_ZNSt10shared_ptrIN19OpenColorIO_v2_5dev21XmlReaderContainerEltEEC2ERKS2_.exit, label %11

11:                                               ; preds = %5
  %12 = getelementptr inbounds nuw i8, ptr %10, i64 8
  %13 = load i8, ptr @__libc_single_threaded, align 1, !tbaa !34
  %.not.i.i.i.i = icmp eq i8 %13, 0
  br i1 %.not.i.i.i.i, label %17, label %14

14:                                               ; preds = %11
  %15 = load i32, ptr %12, align 4, !tbaa !35
  %16 = add nsw i32 %15, 1
  store i32 %16, ptr %12, align 4, !tbaa !35
  br label %_ZNSt10shared_ptrIN19OpenColorIO_v2_5dev21XmlReaderContainerEltEEC2ERKS2_.exit

17:                                               ; preds = %11
  %18 = atomicrmw volatile add ptr %12, i32 1 acq_rel, align 4
  br label %_ZNSt10shared_ptrIN19OpenColorIO_v2_5dev21XmlReaderContainerEltEEC2ERKS2_.exit

_ZNSt10shared_ptrIN19OpenColorIO_v2_5dev21XmlReaderContainerEltEEC2ERKS2_.exit: ; preds = %5, %14, %17
  invoke void @_ZN19OpenColorIO_v2_5dev16XmlReaderElementC2ERKNSt7__cxx1112basic_stringIcSt11char_traitsIcESaIcEEEjS8_(ptr noundef nonnull align 8 dereferenceable(96) %0, ptr noundef nonnull align 8 dereferenceable(32) %1, i32 noundef %3, ptr noundef nonnull align 8 dereferenceable(32) %4)
          to label %.noexc unwind label %51

.noexc:                                           ; preds = %_ZNSt10shared_ptrIN19OpenColorIO_v2_5dev21XmlReaderContainerEltEEC2ERKS2_.exit
  store ptr getelementptr inbounds nuw inrange(-16, 72) (i8, ptr @_ZTVN19OpenColorIO_v2_5dev17XmlReaderPlainEltE, i64 16), ptr %0, align 8, !tbaa !9
  %19 = getelementptr inbounds nuw i8, ptr %0, i64 80
  %20 = load ptr, ptr %6, align 8, !tbaa !75
  store ptr %20, ptr %19, align 8, !tbaa !75
  %21 = getelementptr inbounds nuw i8, ptr %0, i64 88
  %22 = load ptr, ptr %8, align 8, !tbaa !33
  store ptr %22, ptr %21, align 8, !tbaa !33
  %.not.i.i.i.i5 = icmp eq ptr %22, null
  br i1 %.not.i.i.i.i5, label %_ZNSt12__shared_ptrIN19OpenColorIO_v2_5dev21XmlReaderContainerEltELN9__gnu_cxx12_Lock_policyE2EED2Ev.exit, label %23

23:                                               ; preds = %.noexc
  %24 = getelementptr inbounds nuw i8, ptr %22, i64 8
  %25 = load i8, ptr @__libc_single_threaded, align 1, !tbaa !34
  %.not.i.i.i.i.i = icmp eq i8 %25, 0
  br i1 %.not.i.i.i.i.i, label %_ZN19OpenColorIO_v2_5dev17XmlReaderPlainEltC2ERKNSt7__cxx1112basic_stringIcSt11char_traitsIcESaIcEEESt10shared_ptrINS_21XmlReaderContainerEltEEjS8_.exit, label %_ZN19OpenColorIO_v2_5dev17XmlReaderPlainEltC2ERKNSt7__cxx1112basic_stringIcSt11char_traitsIcESaIcEEESt10shared_ptrINS_21XmlReaderContainerEltEEjS8_.exit.thread

_ZN19OpenColorIO_v2_5dev17XmlReaderPlainEltC2ERKNSt7__cxx1112basic_stringIcSt11char_traitsIcESaIcEEESt10shared_ptrINS_21XmlReaderContainerEltEEjS8_.exit.thread: ; preds = %23
  %26 = load i32, ptr %24, align 4, !tbaa !35
  %27 = add nsw i32 %26, 1
  store i32 %27, ptr %24, align 4, !tbaa !35
  br label %29

_ZN19OpenColorIO_v2_5dev17XmlReaderPlainEltC2ERKNSt7__cxx1112basic_stringIcSt11char_traitsIcESaIcEEESt10shared_ptrINS_21XmlReaderContainerEltEEjS8_.exit: ; preds = %23
  %28 = atomicrmw volatile add ptr %24, i32 1 acq_rel, align 4
  %.pr.pre = load ptr, ptr %8, align 8, !tbaa !33
  %.not.i.i = icmp eq ptr %.pr.pre, null
  br i1 %.not.i.i, label %_ZNSt12__shared_ptrIN19OpenColorIO_v2_5dev21XmlReaderContainerEltELN9__gnu_cxx12_Lock_policyE2EED2Ev.exit, label %29

29:                                               ; preds = %_ZN19OpenColorIO_v2_5dev17XmlReaderPlainEltC2ERKNSt7__cxx1112basic_stringIcSt11char_traitsIcESaIcEEESt10shared_ptrINS_21XmlReaderContainerEltEEjS8_.exit.thread, %_ZN19OpenColorIO_v2_5dev17XmlReaderPlainEltC2ERKNSt7__cxx1112basic_stringIcSt11char_traitsIcESaIcEEESt10shared_ptrINS_21XmlReaderContainerEltEEjS8_.exit
  %.pr11 = phi ptr [ %22, %_ZN19OpenColorIO_v2_5dev17XmlReaderPlainEltC2ERKNSt7__cxx1112basic_stringIcSt11char_traitsIcESaIcEEESt10shared_ptrINS_21XmlReaderContainerEltEEjS8_.exit.thread ], [ %.pr.pre, %_ZN19OpenColorIO_v2_5dev17XmlReaderPlainEltC2ERKNSt7__cxx1112basic_stringIcSt11char_traitsIcESaIcEEESt10shared_ptrINS_21XmlReaderContainerEltEEjS8_.exit ]
  %30 = getelementptr inbounds nuw i8, ptr %.pr11, i64 8
  %31 = load atomic i64, ptr %30 acquire, align 8
  %32 = icmp eq i64 %31, 4294967297
  %33 = trunc i64 %31 to i32
  br i1 %32, label %34, label %42

34:                                               ; preds = %29
  store i32 0, ptr %30, align 8, !tbaa !26
  %35 = getelementptr inbounds nuw i8, ptr %.pr11, i64 12
  store i32 0, ptr %35, align 4, !tbaa !31
  %36 = load ptr, ptr %.pr11, align 8, !tbaa !9
  %37 = getelementptr inbounds nuw i8, ptr %36, i64 16
  %38 = load ptr, ptr %37, align 8
  tail call void %38(ptr noundef nonnull align 8 dereferenceable(16) %.pr11) #33
  %39 = load ptr, ptr %.pr11, align 8, !tbaa !9
  %40 = getelementptr inbounds nuw i8, ptr %39, i64 24
  %41 = load ptr, ptr %40, align 8
  tail call void %41(ptr noundef nonnull align 8 dereferenceable(16) %.pr11) #33
  br label %_ZNSt12__shared_ptrIN19OpenColorIO_v2_5dev21XmlReaderContainerEltELN9__gnu_cxx12_Lock_policyE2EED2Ev.exit

42:                                               ; preds = %29
  %43 = load i8, ptr @__libc_single_threaded, align 1, !tbaa !34
  %.not.i.i.i6 = icmp eq i8 %43, 0
  br i1 %.not.i.i.i6, label %46, label %44

44:                                               ; preds = %42
  %45 = add nsw i32 %33, -1
  store i32 %45, ptr %30, align 4, !tbaa !35
  br label %_ZN9__gnu_cxx27__exchange_and_add_dispatchEPii.exit.i.i.i

46:                                               ; preds = %42
  %47 = atomicrmw volatile add ptr %30, i32 -1 acq_rel, align 4
  br label %_ZN9__gnu_cxx27__exchange_and_add_dispatchEPii.exit.i.i.i

_ZN9__gnu_cxx27__exchange_and_add_dispatchEPii.exit.i.i.i: ; preds = %46, %44
  %.0.i.i.i.i = phi i32 [ %33, %44 ], [ %47, %46 ]
  %48 = icmp eq i32 %.0.i.i.i.i, 1
  br i1 %48, label %49, label %_ZNSt12__shared_ptrIN19OpenColorIO_v2_5dev21XmlReaderContainerEltELN9__gnu_cxx12_Lock_policyE2EED2Ev.exit, !prof !36

49:                                               ; preds = %_ZN9__gnu_cxx27__exchange_and_add_dispatchEPii.exit.i.i.i
  tail call void @_ZNSt16_Sp_counted_baseILN9__gnu_cxx12_Lock_policyE2EE24_M_release_last_use_coldEv(ptr noundef nonnull align 8 dereferenceable(16) %.pr11) #33
  br label %_ZNSt12__shared_ptrIN19OpenColorIO_v2_5dev21XmlReaderContainerEltELN9__gnu_cxx12_Lock_policyE2EED2Ev.exit

_ZNSt12__shared_ptrIN19OpenColorIO_v2_5dev21XmlReaderContainerEltELN9__gnu_cxx12_Lock_policyE2EED2Ev.exit: ; preds = %.noexc, %_ZN19OpenColorIO_v2_5dev17XmlReaderPlainEltC2ERKNSt7__cxx1112basic_stringIcSt11char_traitsIcESaIcEEESt10shared_ptrINS_21XmlReaderContainerEltEEjS8_.exit, %34, %_ZN9__gnu_cxx27__exchange_and_add_dispatchEPii.exit.i.i.i, %49
  store ptr getelementptr inbounds nuw inrange(-16, 72) (i8, ptr @_ZTVN19OpenColorIO_v2_5dev30CTFReaderGradingCurveSlopesEltE, i64 16), ptr %0, align 8, !tbaa !9
  %50 = getelementptr inbounds nuw i8, ptr %0, i64 96
  tail call void @llvm.memset.p0.i64(ptr noundef nonnull align 8 dereferenceable(24) %50, i8 0, i64 24, i1 false)
  ret void

51:                                               ; preds = %_ZNSt10shared_ptrIN19OpenColorIO_v2_5dev21XmlReaderContainerEltEEC2ERKS2_.exit
  %52 = landingpad { ptr, i32 }
          cleanup
  call void @_ZNSt12__shared_ptrIN19OpenColorIO_v2_5dev21XmlReaderContainerEltELN9__gnu_cxx12_Lock_policyE2EED2Ev(ptr noundef nonnull align 8 dereferenceable(16) %6) #33
  resume { ptr, i32 } %52
}